; Function Attrs: mustprogress uwtable
define hidden void @_ZN4cvc58internal6theory5arith8rewriter12removeToRealENS0_12NodeTemplateILb0EEE(ptr dead_on_unwind noalias writable writeonly sret(%"class.cvc5::internal::NodeTemplate.0") align 8 captures(none) initializes((0, 8)) %0, ptr noundef readonly captures(none) %1) local_unnamed_addr #3 {
  %3 = load ptr, ptr %1, align 8, !tbaa !3
  %4 = getelementptr inbounds nuw i8, ptr %3, i64 8
  %5 = load i64, ptr %4, align 8
  %6 = and i64 %5, 1023
  %7 = icmp eq i64 %6, 83
  br i1 %7, label %8, label %15

8:                                                ; preds = %2
  %9 = tail call noundef i32 @_ZN4cvc58internal4kind10metaKindOfENS1_6Kind_tE(i32 noundef 83), !noalias !49
  %10 = icmp eq i32 %9, 2
  %11 = getelementptr inbounds nuw i8, ptr %3, i64 24
  %12 = zext i1 %10 to i64
  %13 = getelementptr inbounds nuw [0 x ptr], ptr %11, i64 0, i64 %12
  %14 = load ptr, ptr %13, align 8, !tbaa !52, !noalias !49
  br label %15

15:                                               ; preds = %2, %8
  %storemerge = phi ptr [ %14, %8 ], [ %3, %2 ]
  store ptr %storemerge, ptr %0, align 8, !tbaa !3
  ret void
}